; Function Attrs: mustprogress nofree norecurse nosync nounwind willreturn memory(argmem: readwrite) uwtable
define internal void @_ZN4LuauL8fnVisitRIZNKS_5EqSat8LanguageIJNS_19EqSatSimplification4TNilENS3_8TBooleanENS3_7TNumberENS3_7TStringENS3_7TThreadENS3_12TTopFunctionENS3_9TTopTableENS3_9TTopClassENS3_7TBufferENS3_7TOpaqueENS3_8SBooleanENS3_7SStringENS3_9TFunctionENS3_6TTableENS3_14TImportedTableENS3_6TClassENS3_4TAnyENS3_6TErrorENS3_8TUnknownENS3_6TNeverENS3_5UnionENS3_12IntersectionENS3_8NegationENS3_8TTypeFunENS3_7InvalidENS3_9TNoRefineENS3_6TBoundEEE8operandsEvEUlOT_E_NS1_5SliceIKNS1_2IdEEEKSP_EEvRSW_RT0_PNSt11conditionalIXsr3stdE10is_const_vIT1_EEKvvE4typeE(ptr nonnull readnone align 1 captures(none) %0, ptr noundef nonnull writeonly align 8 captures(none) dereferenceable(16) initializes((0, 16)) %1, ptr noundef readonly captures(none) %2) #9 {
  %4 = load ptr, ptr %2, align 8, !tbaa !8
  %5 = getelementptr inbounds nuw i8, ptr %2, i64 8
  %6 = load ptr, ptr %5, align 8, !tbaa !12
  %7 = ptrtoint ptr %6 to i64
  %8 = ptrtoint ptr %4 to i64
  %9 = sub i64 %7, %8
  %10 = ashr exact i64 %9, 2
  store ptr %4, ptr %1, align 8, !tbaa !26
  %.sroa.4.0..sroa_idx = getelementptr inbounds nuw i8, ptr %1, i64 8
  store i64 %10, ptr %.sroa.4.0..sroa_idx, align 8, !tbaa !45
  ret void
}